target datalayout = "e-m:e-p270:32:32-p271:32:32-p272:64:64-i64:64-i128:128-f80:128-n8:16:32:64-S128"
target triple = "x86_64-unknown-linux-gnu"

%"class.std::set.0" = type { %"class.std::_Rb_tree.1" }
%"class.std::_Rb_tree.1" = type { %"struct.std::_Rb_tree<QuantLib::Observer *, QuantLib::Observer *, std::_Identity<QuantLib::Observer *>, std::less<QuantLib::Observer *>>::_Rb_tree_impl" }
%"struct.std::_Rb_tree<QuantLib::Observer *, QuantLib::Observer *, std::_Identity<QuantLib::Observer *>, std::less<QuantLib::Observer *>>::_Rb_tree_impl" = type { [8 x i8], %"struct.std::_Rb_tree_header" }
%"struct.std::_Rb_tree_header" = type { %"struct.std::_Rb_tree_node_base", i64 }
%"struct.std::_Rb_tree_node_base" = type { i32, ptr, ptr, ptr }
%"class.std::set" = type { %"class.std::_Rb_tree" }
%"class.std::_Rb_tree" = type { %"struct.std::_Rb_tree<boost::shared_ptr<QuantLib::Observable>, boost::shared_ptr<QuantLib::Observable>, std::_Identity<boost::shared_ptr<QuantLib::Observable>>, std::less<boost::shared_ptr<QuantLib::Observable>>>::_Rb_tree_impl" }
%"struct.std::_Rb_tree<boost::shared_ptr<QuantLib::Observable>, boost::shared_ptr<QuantLib::Observable>, std::_Identity<boost::shared_ptr<QuantLib::Observable>>, std::less<boost::shared_ptr<QuantLib::Observable>>>::_Rb_tree_impl" = type { [8 x i8], %"struct.std::_Rb_tree_header" }
%"class.boost::detail::shared_count" = type { ptr }
%"class.QuantLib::Observable" = type { ptr, %"class.std::set.0" }
%"class.QuantLib::DayCounter" = type { %"class.boost::shared_ptr.6" }
%"class.boost::shared_ptr.6" = type { ptr, %"class.boost::detail::shared_count" }
%"class.QuantLib::Extrapolator.base" = type <{ ptr, i8 }>
%"class.QuantLib::Calendar" = type { %"class.boost::shared_ptr.7" }
%"class.boost::shared_ptr.7" = type { ptr, %"class.boost::detail::shared_count" }
%"class.QuantLib::Date" = type { i64 }
%"class.QuantLib::Observer" = type { ptr, %"class.std::set" }
%"class.QuantLib::TermStructure.base" = type { %"class.QuantLib::Extrapolator.base", i8, i8, %"class.QuantLib::Calendar", %"class.QuantLib::Date", i32, %"class.QuantLib::DayCounter" }
%"class.QuantLib::SabrVolSurface" = type { %"class.QuantLib::InterestRateVolSurface.base", %"class.QuantLib::Handle", %"class.std::vector", %"class.std::vector.32", %"class.std::vector.37", %"class.std::vector.32", %"class.std::vector.42", i8, i8, i8, i8, i8, %"class.std::vector.47", %"class.QuantLib::Observer", %"class.QuantLib::Observable" }
%"class.QuantLib::InterestRateVolSurface.base" = type { %"class.QuantLib::BlackVolSurface.base", %"class.boost::shared_ptr.27" }
%"class.QuantLib::BlackVolSurface.base" = type { %"class.QuantLib::BlackAtmVolCurve.base" }
%"class.QuantLib::BlackAtmVolCurve.base" = type { %"class.QuantLib::VolatilityTermStructure.base" }
%"class.QuantLib::VolatilityTermStructure.base" = type <{ %"class.QuantLib::TermStructure.base", i32 }>
%"class.boost::shared_ptr.27" = type { ptr, %"class.boost::detail::shared_count" }
%"class.QuantLib::Handle" = type { %"class.boost::shared_ptr.28" }
%"class.boost::shared_ptr.28" = type { ptr, %"class.boost::detail::shared_count" }
%"class.std::vector" = type { %"struct.std::_Vector_base" }
%"struct.std::_Vector_base" = type { %"struct.std::_Vector_base<QuantLib::Period, std::allocator<QuantLib::Period>>::_Vector_impl" }
%"struct.std::_Vector_base<QuantLib::Period, std::allocator<QuantLib::Period>>::_Vector_impl" = type { %"struct.std::_Vector_base<QuantLib::Period, std::allocator<QuantLib::Period>>::_Vector_impl_data" }
%"struct.std::_Vector_base<QuantLib::Period, std::allocator<QuantLib::Period>>::_Vector_impl_data" = type { ptr, ptr, ptr }
%"class.std::vector.37" = type { %"struct.std::_Vector_base.38" }
%"struct.std::_Vector_base.38" = type { %"struct.std::_Vector_base<QuantLib::Date, std::allocator<QuantLib::Date>>::_Vector_impl" }
%"struct.std::_Vector_base<QuantLib::Date, std::allocator<QuantLib::Date>>::_Vector_impl" = type { %"struct.std::_Vector_base<QuantLib::Date, std::allocator<QuantLib::Date>>::_Vector_impl_data" }
%"struct.std::_Vector_base<QuantLib::Date, std::allocator<QuantLib::Date>>::_Vector_impl_data" = type { ptr, ptr, ptr }
%"class.std::vector.32" = type { %"struct.std::_Vector_base.33" }
%"struct.std::_Vector_base.33" = type { %"struct.std::_Vector_base<double, std::allocator<double>>::_Vector_impl" }
%"struct.std::_Vector_base<double, std::allocator<double>>::_Vector_impl" = type { %"struct.std::_Vector_base<double, std::allocator<double>>::_Vector_impl_data" }
%"struct.std::_Vector_base<double, std::allocator<double>>::_Vector_impl_data" = type { ptr, ptr, ptr }
%"class.std::vector.42" = type { %"struct.std::_Vector_base.43" }
%"struct.std::_Vector_base.43" = type { %"struct.std::_Vector_base<std::vector<QuantLib::Handle<QuantLib::Quote>>, std::allocator<std::vector<QuantLib::Handle<QuantLib::Quote>>>>::_Vector_impl" }
%"struct.std::_Vector_base<std::vector<QuantLib::Handle<QuantLib::Quote>>, std::allocator<std::vector<QuantLib::Handle<QuantLib::Quote>>>>::_Vector_impl" = type { %"struct.std::_Vector_base<std::vector<QuantLib::Handle<QuantLib::Quote>>, std::allocator<std::vector<QuantLib::Handle<QuantLib::Quote>>>>::_Vector_impl_data" }
%"struct.std::_Vector_base<std::vector<QuantLib::Handle<QuantLib::Quote>>, std::allocator<std::vector<QuantLib::Handle<QuantLib::Quote>>>>::_Vector_impl_data" = type { ptr, ptr, ptr }
%"class.std::vector.47" = type { %"struct.std::_Vector_base.48" }
%"struct.std::_Vector_base.48" = type { %"struct.std::_Vector_base<std::array<double, 4>, std::allocator<std::array<double, 4>>>::_Vector_impl" }
%"struct.std::_Vector_base<std::array<double, 4>, std::allocator<std::array<double, 4>>>::_Vector_impl" = type { %"struct.std::_Vector_base<std::array<double, 4>, std::allocator<std::array<double, 4>>>::_Vector_impl_data" }
%"struct.std::_Vector_base<std::array<double, 4>, std::allocator<std::array<double, 4>>>::_Vector_impl_data" = type { ptr, ptr, ptr }
%"struct.std::array" = type { [4 x double] }

; Function Attrs: mustprogress nounwind uwtable
define linkonce_odr noundef nonnull align 8 dereferenceable(8) ptr @_ZNSt14__array_traitsIdLm4EE6_S_refERA4_Kdm(ptr noundef nonnull align 8 dereferenceable(32) %__t, i64 noundef %__n) #1 comdat align 2 {
entry:
  %__t.addr = alloca ptr, align 8
  %__n.addr = alloca i64, align 8
  store ptr %__t, ptr %__t.addr, align 8, !tbaa !3
  store i64 %__n, ptr %__n.addr, align 8, !tbaa !61
  %0 = load ptr, ptr %__t.addr, align 8, !tbaa !3
  %1 = load i64, ptr %__n.addr, align 8, !tbaa !61
  %arrayidx = getelementptr inbounds nuw [4 x double], ptr %0, i64 0, i64 %1
  ret ptr %arrayidx
}

; Function Attrs: inlinehint mustprogress nounwind uwtable
define linkonce_odr noundef i64 @_ZNK8QuantLib4Date12serialNumberEv(ptr noundef nonnull align 8 dereferenceable(8) %this) #5 comdat align 2 {
entry:
  %this.addr = alloca ptr, align 8
  store ptr %this, ptr %this.addr, align 8, !tbaa !3
  %this1 = load ptr, ptr %this.addr, align 8
  %serialNumber_ = getelementptr inbounds nuw %"class.QuantLib::Date", ptr %this1, i32 0, i32 0
  %0 = load i64, ptr %serialNumber_, align 8, !tbaa !148
  ret i64 %0
}

; Function Attrs: mustprogress nounwind uwtable
define linkonce_odr noundef nonnull align 8 dereferenceable(32) ptr @_ZNSt6vectorISt5arrayIdLm4EESaIS1_EEixEm(ptr noundef nonnull align 8 dereferenceable(24) %this, i64 noundef %__n) #1 comdat align 2 {
entry:
  %this.addr = alloca ptr, align 8
  %__n.addr = alloca i64, align 8
  store ptr %this, ptr %this.addr, align 8, !tbaa !3
  store i64 %__n, ptr %__n.addr, align 8, !tbaa !61
  %this1 = load ptr, ptr %this.addr, align 8
  %_M_impl = getelementptr inbounds nuw %"struct.std::_Vector_base.48", ptr %this1, i32 0, i32 0
  %_M_start = getelementptr inbounds nuw %"struct.std::_Vector_base<std::array<double, 4>, std::allocator<std::array<double, 4>>>::_Vector_impl_data", ptr %_M_impl, i32 0, i32 0
  %0 = load ptr, ptr %_M_start, align 8, !tbaa !72
  %1 = load i64, ptr %__n.addr, align 8, !tbaa !61
  %add.ptr = getelementptr inbounds nuw %"struct.std::array", ptr %0, i64 %1
  ret ptr %add.ptr
}

; Function Attrs: mustprogress nounwind uwtable
define linkonce_odr noundef nonnull align 8 dereferenceable(8) ptr @_ZNSt5arrayIdLm4EEixEm(ptr noundef nonnull align 8 dereferenceable(32) %this, i64 noundef %__n) #1 comdat align 2 {
entry:
  %this.addr = alloca ptr, align 8
  %__n.addr = alloca i64, align 8
  store ptr %this, ptr %this.addr, align 8, !tbaa !3
  store i64 %__n, ptr %__n.addr, align 8, !tbaa !61
  %this1 = load ptr, ptr %this.addr, align 8
  %_M_elems = getelementptr inbounds nuw %"struct.std::array", ptr %this1, i32 0, i32 0
  %0 = load i64, ptr %__n.addr, align 8, !tbaa !61
  %call = call noundef nonnull align 8 dereferenceable(8) ptr @_ZNSt14__array_traitsIdLm4EE6_S_refERA4_Kdm(ptr noundef nonnull align 8 dereferenceable(32) %_M_elems, i64 noundef %0) #16
  ret ptr %call
}

; Function Attrs: inlinehint mustprogress uwtable
define linkonce_odr noundef zeroext i1 @_ZN8QuantLibleERKNS_4DateES2_(ptr noundef nonnull align 8 dereferenceable(8) %d1, ptr noundef nonnull align 8 dereferenceable(8) %d2) #4 comdat {
entry:
  %d1.addr = alloca ptr, align 8
  %d2.addr = alloca ptr, align 8
  store ptr %d1, ptr %d1.addr, align 8, !tbaa !3
  store ptr %d2, ptr %d2.addr, align 8, !tbaa !3
  %0 = load ptr, ptr %d1.addr, align 8, !tbaa !3
  %call = call noundef i64 @_ZNK8QuantLib4Date12serialNumberEv(ptr noundef nonnull align 8 dereferenceable(8) %0)
  %1 = load ptr, ptr %d2.addr, align 8, !tbaa !3
  %call1 = call noundef i64 @_ZNK8QuantLib4Date12serialNumberEv(ptr noundef nonnull align 8 dereferenceable(8) %1)
  %cmp = icmp sle i64 %call, %call1
  ret i1 %cmp
}

; Function Attrs: mustprogress nounwind uwtable
define linkonce_odr noundef nonnull align 8 dereferenceable(8) ptr @_ZNKSt6vectorIN8QuantLib4DateESaIS1_EEixEm(ptr noundef nonnull align 8 dereferenceable(24) %this, i64 noundef %__n) #1 comdat align 2 {
entry:
  %this.addr = alloca ptr, align 8
  %__n.addr = alloca i64, align 8
  store ptr %this, ptr %this.addr, align 8, !tbaa !3
  store i64 %__n, ptr %__n.addr, align 8, !tbaa !61
  %this1 = load ptr, ptr %this.addr, align 8
  %_M_impl = getelementptr inbounds nuw %"struct.std::_Vector_base.38", ptr %this1, i32 0, i32 0
  %_M_start = getelementptr inbounds nuw %"struct.std::_Vector_base<QuantLib::Date, std::allocator<QuantLib::Date>>::_Vector_impl_data", ptr %_M_impl, i32 0, i32 0
  %0 = load ptr, ptr %_M_start, align 8, !tbaa !73
  %1 = load i64, ptr %__n.addr, align 8, !tbaa !61
  %add.ptr = getelementptr inbounds nuw %"class.QuantLib::Date", ptr %0, i64 %1
  ret ptr %add.ptr
}

; Function Attrs: mustprogress nounwind uwtable
define linkonce_odr noundef i64 @_ZNKSt6vectorIN8QuantLib4DateESaIS1_EE4sizeEv(ptr noundef nonnull align 8 dereferenceable(24) %this) #1 comdat align 2 {
entry:
  %this.addr = alloca ptr, align 8
  store ptr %this, ptr %this.addr, align 8, !tbaa !3
  %this1 = load ptr, ptr %this.addr, align 8
  %_M_impl = getelementptr inbounds nuw %"struct.std::_Vector_base.38", ptr %this1, i32 0, i32 0
  %_M_finish = getelementptr inbounds nuw %"struct.std::_Vector_base<QuantLib::Date, std::allocator<QuantLib::Date>>::_Vector_impl_data", ptr %_M_impl, i32 0, i32 1
  %0 = load ptr, ptr %_M_finish, align 8, !tbaa !81
  %_M_impl2 = getelementptr inbounds nuw %"struct.std::_Vector_base.38", ptr %this1, i32 0, i32 0
  %_M_start = getelementptr inbounds nuw %"struct.std::_Vector_base<QuantLib::Date, std::allocator<QuantLib::Date>>::_Vector_impl_data", ptr %_M_impl2, i32 0, i32 0
  %1 = load ptr, ptr %_M_start, align 8, !tbaa !73
  %sub.ptr.lhs.cast = ptrtoint ptr %0 to i64
  %sub.ptr.rhs.cast = ptrtoint ptr %1 to i64
  %sub.ptr.sub = sub i64 %sub.ptr.lhs.cast, %sub.ptr.rhs.cast
  %sub.ptr.div = sdiv exact i64 %sub.ptr.sub, 8
  ret i64 %sub.ptr.div
}

; Function Attrs: mustprogress uwtable
define void @_ZNK8QuantLib14SabrVolSurface17updateSabrGuessesERKNS_4DateESt5arrayIdLm4EE(ptr noundef nonnull align 8 dereferenceable(256) %this, ptr noundef nonnull align 8 dereferenceable(8) %d, ptr noundef byval(%"struct.std::array") align 8 %newGuesses) #2 align 2 {
entry:
  %this.addr = alloca ptr, align 8
  %d.addr = alloca ptr, align 8
  %i = alloca i64, align 8
  store ptr %this, ptr %this.addr, align 8, !tbaa !3
  store ptr %d, ptr %d.addr, align 8, !tbaa !3
  %this1 = load ptr, ptr %this.addr, align 8
  call void @llvm.lifetime.start.p0(i64 8, ptr %i) #16
  store i64 0, ptr %i, align 8, !tbaa !61
  br label %while.cond

while.cond:                                       ; preds = %while.body, %entry
  %0 = load i64, ptr %i, align 8, !tbaa !61
  %optionDates_ = getelementptr inbounds nuw %"class.QuantLib::SabrVolSurface", ptr %this1, i32 0, i32 4
  %call = call noundef i64 @_ZNKSt6vectorIN8QuantLib4DateESaIS1_EE4sizeEv(ptr noundef nonnull align 8 dereferenceable(24) %optionDates_) #16
  %cmp = icmp ult i64 %0, %call
  br i1 %cmp, label %land.rhs, label %land.end

land.rhs:                                         ; preds = %while.cond
  %1 = load ptr, ptr %d.addr, align 8, !tbaa !3
  %optionDates_2 = getelementptr inbounds nuw %"class.QuantLib::SabrVolSurface", ptr %this1, i32 0, i32 4
  %2 = load i64, ptr %i, align 8, !tbaa !61
  %call3 = call noundef nonnull align 8 dereferenceable(8) ptr @_ZNKSt6vectorIN8QuantLib4DateESaIS1_EEixEm(ptr noundef nonnull align 8 dereferenceable(24) %optionDates_2, i64 noundef %2) #16
  %call4 = call noundef zeroext i1 @_ZN8QuantLibleERKNS_4DateES2_(ptr noundef nonnull align 8 dereferenceable(8) %1, ptr noundef nonnull align 8 dereferenceable(8) %call3)
  br label %land.end

land.end:                                         ; preds = %land.rhs, %while.cond
  %3 = phi i1 [ false, %while.cond ], [ %call4, %land.rhs ]
  br i1 %3, label %while.body, label %while.end

while.body:                                       ; preds = %land.end
  %4 = load i64, ptr %i, align 8, !tbaa !61
  %inc = add i64 %4, 1
  store i64 %inc, ptr %i, align 8, !tbaa !61
  br label %while.cond, !llvm.loop !86

while.end:                                        ; preds = %land.end
  %call5 = call noundef nonnull align 8 dereferenceable(8) ptr @_ZNSt5arrayIdLm4EEixEm(ptr noundef nonnull align 8 dereferenceable(32) %newGuesses, i64 noundef 0) #16
  %5 = load double, ptr %call5, align 8, !tbaa !63
  %sabrGuesses_ = getelementptr inbounds nuw %"class.QuantLib::SabrVolSurface", ptr %this1, i32 0, i32 12
  %6 = load i64, ptr %i, align 8, !tbaa !61
  %call6 = call noundef nonnull align 8 dereferenceable(32) ptr @_ZNSt6vectorISt5arrayIdLm4EESaIS1_EEixEm(ptr noundef nonnull align 8 dereferenceable(24) %sabrGuesses_, i64 noundef %6) #16
  %call7 = call noundef nonnull align 8 dereferenceable(8) ptr @_ZNSt5arrayIdLm4EEixEm(ptr noundef nonnull align 8 dereferenceable(32) %call6, i64 noundef 0) #16
  store double %5, ptr %call7, align 8, !tbaa !63
  %call8 = call noundef nonnull align 8 dereferenceable(8) ptr @_ZNSt5arrayIdLm4EEixEm(ptr noundef nonnull align 8 dereferenceable(32) %newGuesses, i64 noundef 1) #16
  %7 = load double, ptr %call8, align 8, !tbaa !63
  %sabrGuesses_9 = getelementptr inbounds nuw %"class.QuantLib::SabrVolSurface", ptr %this1, i32 0, i32 12
  %8 = load i64, ptr %i, align 8, !tbaa !61
  %call10 = call noundef nonnull align 8 dereferenceable(32) ptr @_ZNSt6vectorISt5arrayIdLm4EESaIS1_EEixEm(ptr noundef nonnull align 8 dereferenceable(24) %sabrGuesses_9, i64 noundef %8) #16
  %call11 = call noundef nonnull align 8 dereferenceable(8) ptr @_ZNSt5arrayIdLm4EEixEm(ptr noundef nonnull align 8 dereferenceable(32) %call10, i64 noundef 1) #16
  store double %7, ptr %call11, align 8, !tbaa !63
  %call12 = call noundef nonnull align 8 dereferenceable(8) ptr @_ZNSt5arrayIdLm4EEixEm(ptr noundef nonnull align 8 dereferenceable(32) %newGuesses, i64 noundef 2) #16
  %9 = load double, ptr %call12, align 8, !tbaa !63
  %sabrGuesses_13 = getelementptr inbounds nuw %"class.QuantLib::SabrVolSurface", ptr %this1, i32 0, i32 12
  %10 = load i64, ptr %i, align 8, !tbaa !61
  %call14 = call noundef nonnull align 8 dereferenceable(32) ptr @_ZNSt6vectorISt5arrayIdLm4EESaIS1_EEixEm(ptr noundef nonnull align 8 dereferenceable(24) %sabrGuesses_13, i64 noundef %10) #16
  %call15 = call noundef nonnull align 8 dereferenceable(8) ptr @_ZNSt5arrayIdLm4EEixEm(ptr noundef nonnull align 8 dereferenceable(32) %call14, i64 noundef 2) #16
  store double %9, ptr %call15, align 8, !tbaa !63
  %call16 = call noundef nonnull align 8 dereferenceable(8) ptr @_ZNSt5arrayIdLm4EEixEm(ptr noundef nonnull align 8 dereferenceable(32) %newGuesses, i64 noundef 3) #16
  %11 = load double, ptr %call16, align 8, !tbaa !63
  %sabrGuesses_17 = getelementptr inbounds nuw %"class.QuantLib::SabrVolSurface", ptr %this1, i32 0, i32 12
  %12 = load i64, ptr %i, align 8, !tbaa !61
  %call18 = call noundef nonnull align 8 dereferenceable(32) ptr @_ZNSt6vectorISt5arrayIdLm4EESaIS1_EEixEm(ptr noundef nonnull align 8 dereferenceable(24) %sabrGuesses_17, i64 noundef %12) #16
  %call19 = call noundef nonnull align 8 dereferenceable(8) ptr @_ZNSt5arrayIdLm4EEixEm(ptr noundef nonnull align 8 dereferenceable(32) %call18, i64 noundef 3) #16
  store double %11, ptr %call19, align 8, !tbaa !63
  call void @llvm.lifetime.end.p0(i64 8, ptr %i) #16
  ret void
}