; Function Attrs: mustprogress nofree norecurse nosync nounwind memory(readwrite, inaccessiblemem: none) uwtable
define void @_ZNK8QuantLib14SabrVolSurface17updateSabrGuessesERKNS_4DateESt5arrayIdLm4EE(ptr nocapture noundef nonnull readonly align 8 dereferenceable(256) %this, ptr nocapture noundef nonnull readonly align 8 dereferenceable(8) %d, ptr nocapture noundef readonly byval(%"struct.std::array") align 8 %newGuesses) local_unnamed_addr #13 align 2 {
entry:
  %optionDates_ = getelementptr inbounds nuw i8, ptr %this, i64 152
  %_M_finish.i = getelementptr inbounds nuw i8, ptr %this, i64 160
  %0 = load ptr, ptr %_M_finish.i, align 8, !tbaa !103
  %1 = load ptr, ptr %optionDates_, align 8, !tbaa !99
  %cmp16.not = icmp eq ptr %0, %1
  br i1 %cmp16.not, label %while.end, label %land.rhs.lr.ph

land.rhs.lr.ph:                                   ; preds = %entry
  %sub.ptr.lhs.cast.i = ptrtoint ptr %0 to i64
  %sub.ptr.rhs.cast.i = ptrtoint ptr %1 to i64
  %sub.ptr.sub.i = sub i64 %sub.ptr.lhs.cast.i, %sub.ptr.rhs.cast.i
  %sub.ptr.div.i = ashr exact i64 %sub.ptr.sub.i, 3
  %2 = load i64, ptr %d, align 8, !tbaa !125
  %umax = tail call i64 @llvm.umax.i64(i64 %sub.ptr.div.i, i64 1)
  br label %land.rhs

land.rhs:                                         ; preds = %land.rhs.lr.ph, %while.body
  %i.017 = phi i64 [ 0, %land.rhs.lr.ph ], [ %inc, %while.body ]
  %add.ptr.i = getelementptr inbounds nuw %"class.QuantLib::Date", ptr %1, i64 %i.017
  %3 = load i64, ptr %add.ptr.i, align 8, !tbaa !125
  %cmp.i.not = icmp sgt i64 %2, %3
  br i1 %cmp.i.not, label %while.end, label %while.body

while.body:                                       ; preds = %land.rhs
  %inc = add nuw i64 %i.017, 1
  %exitcond.not = icmp eq i64 %inc, %umax
  br i1 %exitcond.not, label %while.end, label %land.rhs, !llvm.loop !127

while.end:                                        ; preds = %land.rhs, %while.body, %entry
  %i.0.lcssa = phi i64 [ 0, %entry ], [ %umax, %while.body ], [ %i.017, %land.rhs ]
  %4 = load double, ptr %newGuesses, align 8, !tbaa !67
  %sabrGuesses_ = getelementptr inbounds nuw i8, ptr %this, i64 232
  %5 = load ptr, ptr %sabrGuesses_, align 8, !tbaa !98
  %add.ptr.i7 = getelementptr inbounds nuw %"struct.std::array", ptr %5, i64 %i.0.lcssa
  store double %4, ptr %add.ptr.i7, align 8, !tbaa !67
  %arrayidx.i.i = getelementptr inbounds nuw i8, ptr %newGuesses, i64 8
  %6 = load double, ptr %arrayidx.i.i, align 8, !tbaa !67
  %arrayidx.i.i9 = getelementptr inbounds nuw i8, ptr %add.ptr.i7, i64 8
  store double %6, ptr %arrayidx.i.i9, align 8, !tbaa !67
  %arrayidx.i.i10 = getelementptr inbounds nuw i8, ptr %newGuesses, i64 16
  %7 = load double, ptr %arrayidx.i.i10, align 8, !tbaa !67
  %arrayidx.i.i12 = getelementptr inbounds nuw i8, ptr %add.ptr.i7, i64 16
  store double %7, ptr %arrayidx.i.i12, align 8, !tbaa !67
  %arrayidx.i.i13 = getelementptr inbounds nuw i8, ptr %newGuesses, i64 24
  %8 = load double, ptr %arrayidx.i.i13, align 8, !tbaa !67
  %arrayidx.i.i15 = getelementptr inbounds nuw i8, ptr %add.ptr.i7, i64 24
  store double %8, ptr %arrayidx.i.i15, align 8, !tbaa !67
  ret void
}